; Function Attrs: mustprogress uwtable
define hidden noundef ptr @_Z33pj_projection_specific_setup_wag3P8PJconsts(ptr noundef %0) local_unnamed_addr #0 {
  %2 = tail call noalias dereferenceable_or_null(8) ptr @calloc(i64 noundef 1, i64 noundef 8) #5
  %3 = icmp eq ptr %2, null
  br i1 %3, label %4, label %6

4:                                                ; preds = %1
  %5 = tail call noundef ptr @_Z21pj_default_destructorP8PJconstsi(ptr noundef %0, i32 noundef 4096)
  br label %22

6:                                                ; preds = %1
  %7 = getelementptr inbounds nuw i8, ptr %0, i64 88
  store ptr %2, ptr %7, align 8, !tbaa !3
  %8 = load ptr, ptr %0, align 8, !tbaa !36
  %9 = getelementptr inbounds nuw i8, ptr %0, i64 24
  %10 = load ptr, ptr %9, align 8, !tbaa !37
  %11 = tail call i64 @_Z8pj_paramP6pj_ctxP8ARG_listPKc(ptr noundef %8, ptr noundef %10, ptr noundef nonnull @.str.1)
  %12 = bitcast i64 %11 to double
  %13 = tail call double @cos(double noundef %12) #6, !tbaa !38
  %14 = fmul double %12, 2.000000e+00
  %15 = fdiv double %14, 3.000000e+00
  %16 = tail call double @cos(double noundef %15) #6, !tbaa !38
  %17 = fdiv double %13, %16
  %18 = load ptr, ptr %7, align 8, !tbaa !3
  store double %17, ptr %18, align 8, !tbaa !39
  %19 = getelementptr inbounds nuw i8, ptr %0, i64 216
  store double 0.000000e+00, ptr %19, align 8, !tbaa !41
  %20 = getelementptr inbounds nuw i8, ptr %0, i64 112
  store ptr @_ZL14wag3_s_inverse5PJ_XYP8PJconsts, ptr %20, align 8, !tbaa !42
  %21 = getelementptr inbounds nuw i8, ptr %0, i64 104
  store ptr @_ZL14wag3_s_forward5PJ_LPP8PJconsts, ptr %21, align 8, !tbaa !43
  br label %22

22:                                               ; preds = %6, %4
  %.0 = phi ptr [ %5, %4 ], [ %0, %6 ]
  ret ptr %.0
}